Certificate:
    Data:
        Version: 3 (0x2)
        Serial Number:
            32:21:7d:6a:4d:ec:0f:83:2e:d7:49:db:d7:94:b6:7f
    Signature Algorithm: sha256WithRSAEncryption
        Issuer: CN=CA
        Validity
            Not Before: Oct 29 10:38:13 2021 GMT
            Not After : Feb  1 10:38:13 2024 GMT
        Subject: C=VN, ST=Ho Cho Minh, L=Ho Chi Minh city, O=VNG, OU=Community, CN=user-server
        Subject Public Key Info:
            Public Key Algorithm: rsaEncryption
                Public-Key: (2048 bit)
                Modulus:
                    00:f7:e3:b7:3a:ad:c7:34:4d:49:c7:69:87:9a:cf:
                    4a:00:e4:1a:b6:f3:c3:41:c7:84:72:cf:f7:0f:43:
                    72:15:21:c3:9f:1c:09:94:82:a0:4c:1a:9b:89:89:
                    6d:ee:fe:84:74:71:7b:e8:11:b5:5b:64:1c:87:fe:
                    49:7c:44:4c:95:b3:de:f4:93:c3:3e:c9:b2:c6:2e:
                    2a:a8:d0:bc:93:55:b9:75:23:35:ca:3c:7a:00:02:
                    78:72:8a:4c:27:e8:21:2b:ec:50:7f:b4:2e:a7:46:
                    a0:ac:b1:54:99:b4:35:d6:72:fa:8a:11:aa:1d:59:
                    67:75:78:a4:83:71:39:4c:6a:92:57:23:b8:e0:4f:
                    fc:09:fd:eb:7e:ea:62:3b:64:a5:81:5d:77:ce:41:
                    ae:bb:ef:89:c9:7b:29:02:91:dc:50:57:fc:8b:cd:
                    0e:a0:c9:9f:84:a7:8b:bf:c4:b6:ef:a5:9b:be:99:
                    ae:19:81:0f:74:c2:83:0a:eb:6d:06:35:07:b9:5c:
                    27:b2:26:63:54:2d:72:1d:75:a3:74:88:be:0c:82:
                    64:e7:ca:17:34:de:d6:f5:37:f6:ae:cc:a6:be:05:
                    69:d1:2a:84:c3:bb:24:72:02:78:50:2b:6e:d5:0c:
                    19:ff:51:29:ae:75:dd:6d:76:e3:fb:c5:d1:69:49:
                    09:fd
                Exponent: 65537 (0x10001)
        X509v3 extensions:
            X509v3 Basic Constraints: 
                CA:FALSE
            X509v3 Subject Key Identifier: 
                FD:E2:4D:BB:91:E4:0B:B3:29:7D:3F:02:C9:4E:5A:67:74:94:DA:9F
            X509v3 Authority Key Identifier: 
                keyid:3B:F9:EA:9B:ED:0C:E6:D4:3C:8C:47:33:CF:E8:6D:CA:29:A1:E9:63
                DirName:/CN=CA
                serial:86:B4:85:E8:E8:03:24:70

            X509v3 Extended Key Usage: 
                TLS Web Server Authentication
            X509v3 Key Usage: 
                Digital Signature, Key Encipherment
            X509v3 Subject Alternative Name: 
                DNS:user-server
    Signature Algorithm: sha256WithRSAEncryption
         a5:fd:36:2b:ba:4f:eb:fc:1d:67:a9:80:4b:f7:a7:f1:3d:55:
         ec:03:76:ee:28:53:b6:b8:6b:9d:44:65:a2:eb:3c:9a:a1:79:
         83:f3:64:7a:ea:b5:de:23:5c:69:69:6e:1d:6a:6c:73:3a:16:
         91:04:5d:fa:d6:30:51:24:33:cc:a8:3b:4a:b8:7d:ce:fa:e6:
         7d:31:7a:12:42:5b:b1:e2:44:0f:e6:b7:f1:8b:a7:d5:49:21:
         c9:65:9c:32:28:01:71:f3:d6:70:ec:a0:61:55:b8:16:d6:81:
         b3:80:c0:f2:5c:6e:43:61:82:ad:19:4a:2c:19:95:21:a4:48:
         73:ea:fe:f4:7a:de:1e:fc:db:dd:cd:b2:54:18:86:7d:f8:09:
         8c:61:82:48:a5:70:54:b0:a1:c2:1c:1c:9b:db:d7:cf:fa:1f:
         b6:35:26:0d:ba:9e:55:c1:15:fc:71:06:8e:9a:ee:9d:32:e6:
         c8:b0:3e:bd:da:fa:30:86:c3:29:0d:3d:9a:d6:f8:e2:ea:c3:
         15:35:6d:a0:be:f6:62:22:e3:2d:b5:d4:82:47:7c:e4:46:f1:
         e2:5e:a1:ea:9e:dc:00:2b:c3:07:bf:a0:fe:59:a5:55:90:07:
         ea:82:ad:b1:7b:22:f8:c6:54:3c:6c:fc:dd:b3:bc:0e:1f:17:
         ed:df:f9:22
-----BEGIN CERTIFICATE-----
MIIDtDCCApygAwIBAgIQMiF9ak3sD4Mu10nb15S2fzANBgkqhkiG9w0BAQsFADAN
MQswCQYDVQQDDAJDQTAeFw0yMTEwMjkxMDM4MTNaFw0yNDAyMDExMDM4MTNaMHYx
CzAJBgNVBAYTAlZOMRQwEgYDVQQIDAtIbyBDaG8gTWluaDEZMBcGA1UEBwwQSG8g
Q2hpIE1pbmggY2l0eTEMMAoGA1UECgwDVk5HMRIwEAYDVQQLDAlDb21tdW5pdHkx
FDASBgNVBAMMC3VzZXItc2VydmVyMIIBIjANBgkqhkiG9w0BAQEFAAOCAQ8AMIIB
CgKCAQEA9+O3Oq3HNE1Jx2mHms9KAOQatvPDQceEcs/3D0NyFSHDnxwJlIKgTBqb
iYlt7v6EdHF76BG1W2Qch/5JfERMlbPe9JPDPsmyxi4qqNC8k1W5dSM1yjx6AAJ4
copMJ+ghK+xQf7Qup0agrLFUmbQ11nL6ihGqHVlndXikg3E5TGqSVyO44E/8Cf3r
fupiO2SlgV13zkGuu++JyXspApHcUFf8i80OoMmfhKeLv8S276WbvpmuGYEPdMKD
CuttBjUHuVwnsiZjVC1yHXWjdIi+DIJk58oXNN7W9Tf2rsymvgVp0SqEw7skcgJ4
UCtu1QwZ/1EprnXdbXbj+8XRaUkJ/QIDAQABo4GmMIGjMAkGA1UdEwQCMAAwHQYD
VR0OBBYEFP3iTbuR5AuzKX0/AslOWmd0lNqfMD0GA1UdIwQ2MDSAFDv56pvtDObU
PIxHM8/obcopoeljoRGkDzANMQswCQYDVQQDDAJDQYIJAIa0hejoAyRwMBMGA1Ud
JQQMMAoGCCsGAQUFBwMBMAsGA1UdDwQEAwIFoDAWBgNVHREEDzANggt1c2VyLXNl
cnZlcjANBgkqhkiG9w0BAQsFAAOCAQEApf02K7pP6/wdZ6mAS/en8T1V7AN27ihT
trhrnURlous8mqF5g/Nkeuq13iNcaWluHWpsczoWkQRd+tYwUSQzzKg7Srh9zvrm
fTF6EkJbseJED+a38Yun1UkhyWWcMigBcfPWcOygYVW4FtaBs4DA8lxuQ2GCrRlK
LBmVIaRIc+r+9HreHvzb3c2yVBiGffgJjGGCSKVwVLChwhwcm9vXz/oftjUmDbqe
VcEV/HEGjprunTLmyLA+vdr6MIbDKQ09mtb44urDFTVtoL72YiLjLbXUgkd85Ebx
4l6h6p7cACvDB7+g/lmlVZAH6oKtsXsi+MZUPGz83bO8Dh8X7d/5Ig==
-----END CERTIFICATE-----
