Certificate:
    Data:
        Version: 3 (0x2)
        Serial Number:
            3d:7d:2f:d4:19:53:b1:4e:a5:ac:ff:0c:58:e8:c0:26
    Signature Algorithm: sha256WithRSAEncryption
        Issuer: CN=CA
        Validity
            Not Before: Oct 29 10:41:24 2021 GMT
            Not After : Feb  1 10:41:24 2024 GMT
        Subject: C=VN, ST=Ho Cho Minh, L=Ho Chi Minh city, O=VNG, OU=Community, CN=user-server
        Subject Public Key Info:
            Public Key Algorithm: rsaEncryption
                Public-Key: (2048 bit)
                Modulus:
                    00:f7:e3:b7:3a:ad:c7:34:4d:49:c7:69:87:9a:cf:
                    4a:00:e4:1a:b6:f3:c3:41:c7:84:72:cf:f7:0f:43:
                    72:15:21:c3:9f:1c:09:94:82:a0:4c:1a:9b:89:89:
                    6d:ee:fe:84:74:71:7b:e8:11:b5:5b:64:1c:87:fe:
                    49:7c:44:4c:95:b3:de:f4:93:c3:3e:c9:b2:c6:2e:
                    2a:a8:d0:bc:93:55:b9:75:23:35:ca:3c:7a:00:02:
                    78:72:8a:4c:27:e8:21:2b:ec:50:7f:b4:2e:a7:46:
                    a0:ac:b1:54:99:b4:35:d6:72:fa:8a:11:aa:1d:59:
                    67:75:78:a4:83:71:39:4c:6a:92:57:23:b8:e0:4f:
                    fc:09:fd:eb:7e:ea:62:3b:64:a5:81:5d:77:ce:41:
                    ae:bb:ef:89:c9:7b:29:02:91:dc:50:57:fc:8b:cd:
                    0e:a0:c9:9f:84:a7:8b:bf:c4:b6:ef:a5:9b:be:99:
                    ae:19:81:0f:74:c2:83:0a:eb:6d:06:35:07:b9:5c:
                    27:b2:26:63:54:2d:72:1d:75:a3:74:88:be:0c:82:
                    64:e7:ca:17:34:de:d6:f5:37:f6:ae:cc:a6:be:05:
                    69:d1:2a:84:c3:bb:24:72:02:78:50:2b:6e:d5:0c:
                    19:ff:51:29:ae:75:dd:6d:76:e3:fb:c5:d1:69:49:
                    09:fd
                Exponent: 65537 (0x10001)
        X509v3 extensions:
            X509v3 Basic Constraints: 
                CA:FALSE
            X509v3 Subject Key Identifier: 
                FD:E2:4D:BB:91:E4:0B:B3:29:7D:3F:02:C9:4E:5A:67:74:94:DA:9F
            X509v3 Authority Key Identifier: 
                keyid:3B:F9:EA:9B:ED:0C:E6:D4:3C:8C:47:33:CF:E8:6D:CA:29:A1:E9:63
                DirName:/CN=CA
                serial:86:B4:85:E8:E8:03:24:70

            X509v3 Extended Key Usage: 
                TLS Web Server Authentication
            X509v3 Key Usage: 
                Digital Signature, Key Encipherment
            X509v3 Subject Alternative Name: 
                DNS:user-server
    Signature Algorithm: sha256WithRSAEncryption
         37:c8:97:a8:f9:75:be:28:21:78:4b:19:44:88:87:22:06:20:
         1e:e6:bc:b8:5d:0d:21:2d:22:d9:fc:0a:59:67:d4:15:8f:82:
         66:76:78:c5:2a:cf:bd:0c:4e:e7:87:37:8f:38:bd:e1:04:d0:
         bd:e0:9a:36:dc:fc:5d:4c:bd:c0:59:2e:6e:f0:76:d9:c1:38:
         db:2f:fa:8b:71:5b:ed:cf:78:53:37:7b:32:3f:55:0b:d5:b9:
         72:55:0b:0e:44:65:c8:3f:52:c5:d7:2d:b4:53:ff:7c:b0:16:
         3a:06:8e:00:d7:42:16:87:e9:be:d7:6c:08:a0:5f:6c:0c:8f:
         7e:13:92:0e:8c:f0:c0:ef:8c:ab:bf:d4:e9:f4:6f:be:1f:9f:
         7c:9d:ac:b9:f7:a7:66:36:da:a4:4e:9b:47:0c:88:bc:23:3b:
         87:a4:c0:4c:89:a7:f3:0a:dc:0a:e0:f5:35:1d:81:28:ef:c6:
         08:48:51:04:3f:16:7f:fb:9a:3d:35:36:a3:29:24:d9:67:f3:
         ec:32:83:4a:66:7c:42:72:53:cd:8b:44:e2:d2:1f:90:3f:10:
         be:8f:2d:eb:af:5a:90:5f:71:2d:dd:ca:5b:28:93:16:c1:4d:
         0a:66:3a:54:9f:b0:39:0b:51:71:10:0f:b2:32:25:ce:bb:04:
         5f:ff:30:84
-----BEGIN CERTIFICATE-----
MIIDtDCCApygAwIBAgIQPX0v1BlTsU6lrP8MWOjAJjANBgkqhkiG9w0BAQsFADAN
MQswCQYDVQQDDAJDQTAeFw0yMTEwMjkxMDQxMjRaFw0yNDAyMDExMDQxMjRaMHYx
CzAJBgNVBAYTAlZOMRQwEgYDVQQIDAtIbyBDaG8gTWluaDEZMBcGA1UEBwwQSG8g
Q2hpIE1pbmggY2l0eTEMMAoGA1UECgwDVk5HMRIwEAYDVQQLDAlDb21tdW5pdHkx
FDASBgNVBAMMC3VzZXItc2VydmVyMIIBIjANBgkqhkiG9w0BAQEFAAOCAQ8AMIIB
CgKCAQEA9+O3Oq3HNE1Jx2mHms9KAOQatvPDQceEcs/3D0NyFSHDnxwJlIKgTBqb
iYlt7v6EdHF76BG1W2Qch/5JfERMlbPe9JPDPsmyxi4qqNC8k1W5dSM1yjx6AAJ4
copMJ+ghK+xQf7Qup0agrLFUmbQ11nL6ihGqHVlndXikg3E5TGqSVyO44E/8Cf3r
fupiO2SlgV13zkGuu++JyXspApHcUFf8i80OoMmfhKeLv8S276WbvpmuGYEPdMKD
CuttBjUHuVwnsiZjVC1yHXWjdIi+DIJk58oXNN7W9Tf2rsymvgVp0SqEw7skcgJ4
UCtu1QwZ/1EprnXdbXbj+8XRaUkJ/QIDAQABo4GmMIGjMAkGA1UdEwQCMAAwHQYD
VR0OBBYEFP3iTbuR5AuzKX0/AslOWmd0lNqfMD0GA1UdIwQ2MDSAFDv56pvtDObU
PIxHM8/obcopoeljoRGkDzANMQswCQYDVQQDDAJDQYIJAIa0hejoAyRwMBMGA1Ud
JQQMMAoGCCsGAQUFBwMBMAsGA1UdDwQEAwIFoDAWBgNVHREEDzANggt1c2VyLXNl
cnZlcjANBgkqhkiG9w0BAQsFAAOCAQEAN8iXqPl1vigheEsZRIiHIgYgHua8uF0N
IS0i2fwKWWfUFY+CZnZ4xSrPvQxO54c3jzi94QTQveCaNtz8XUy9wFkubvB22cE4
2y/6i3Fb7c94Uzd7Mj9VC9W5clULDkRlyD9SxdcttFP/fLAWOgaOANdCFofpvtds
CKBfbAyPfhOSDozwwO+Mq7/U6fRvvh+ffJ2sufenZjbapE6bRwyIvCM7h6TATImn
8wrcCuD1NR2BKO/GCEhRBD8Wf/uaPTU2oykk2Wfz7DKDSmZ8QnJTzYtE4tIfkD8Q
vo8t669akF9xLd3KWyiTFsFNCmY6VJ+wOQtRcRAPsjIlzrsEX/8whA==
-----END CERTIFICATE-----
