Certificate:
    Data:
        Version: 3 (0x2)
        Serial Number:
            69:7f:21:d7:83:e2:3d:2e:dd:f0:5e:b0:35:99:1f:3a
    Signature Algorithm: sha256WithRSAEncryption
        Issuer: CN=CA
        Validity
            Not Before: Oct 29 10:46:29 2021 GMT
            Not After : Feb  1 10:46:29 2024 GMT
        Subject: C=VN, ST=Ho Cho Minh, L=Ho Chi Minh city, O=VNG, OU=Community, CN=user-server
        Subject Public Key Info:
            Public Key Algorithm: rsaEncryption
                Public-Key: (2048 bit)
                Modulus:
                    00:f7:e3:b7:3a:ad:c7:34:4d:49:c7:69:87:9a:cf:
                    4a:00:e4:1a:b6:f3:c3:41:c7:84:72:cf:f7:0f:43:
                    72:15:21:c3:9f:1c:09:94:82:a0:4c:1a:9b:89:89:
                    6d:ee:fe:84:74:71:7b:e8:11:b5:5b:64:1c:87:fe:
                    49:7c:44:4c:95:b3:de:f4:93:c3:3e:c9:b2:c6:2e:
                    2a:a8:d0:bc:93:55:b9:75:23:35:ca:3c:7a:00:02:
                    78:72:8a:4c:27:e8:21:2b:ec:50:7f:b4:2e:a7:46:
                    a0:ac:b1:54:99:b4:35:d6:72:fa:8a:11:aa:1d:59:
                    67:75:78:a4:83:71:39:4c:6a:92:57:23:b8:e0:4f:
                    fc:09:fd:eb:7e:ea:62:3b:64:a5:81:5d:77:ce:41:
                    ae:bb:ef:89:c9:7b:29:02:91:dc:50:57:fc:8b:cd:
                    0e:a0:c9:9f:84:a7:8b:bf:c4:b6:ef:a5:9b:be:99:
                    ae:19:81:0f:74:c2:83:0a:eb:6d:06:35:07:b9:5c:
                    27:b2:26:63:54:2d:72:1d:75:a3:74:88:be:0c:82:
                    64:e7:ca:17:34:de:d6:f5:37:f6:ae:cc:a6:be:05:
                    69:d1:2a:84:c3:bb:24:72:02:78:50:2b:6e:d5:0c:
                    19:ff:51:29:ae:75:dd:6d:76:e3:fb:c5:d1:69:49:
                    09:fd
                Exponent: 65537 (0x10001)
        X509v3 extensions:
            X509v3 Basic Constraints: 
                CA:FALSE
            X509v3 Subject Key Identifier: 
                FD:E2:4D:BB:91:E4:0B:B3:29:7D:3F:02:C9:4E:5A:67:74:94:DA:9F
            X509v3 Authority Key Identifier: 
                keyid:3B:F9:EA:9B:ED:0C:E6:D4:3C:8C:47:33:CF:E8:6D:CA:29:A1:E9:63
                DirName:/CN=CA
                serial:86:B4:85:E8:E8:03:24:70

            X509v3 Extended Key Usage: 
                TLS Web Server Authentication
            X509v3 Key Usage: 
                Digital Signature, Key Encipherment
            X509v3 Subject Alternative Name: 
                DNS:user-server
    Signature Algorithm: sha256WithRSAEncryption
         5a:54:01:4b:b5:14:fe:47:ac:35:43:d0:b3:99:95:92:c0:fa:
         fc:3d:0c:19:b2:47:6b:d2:ad:c6:5b:0a:17:44:d4:52:c7:73:
         8f:00:84:58:3f:d8:d2:b5:2d:47:bc:9d:c7:23:63:42:1b:1c:
         6e:32:12:5c:46:62:51:a5:c4:d1:41:77:f3:5b:b0:4e:f3:04:
         0f:59:d0:6c:67:e7:9e:e6:0f:e7:d2:0f:01:e4:e0:d3:55:b6:
         5b:a6:18:c0:90:7f:a9:b1:8a:fb:4a:71:c8:39:cd:31:0c:98:
         d2:3c:20:df:e4:5f:af:b5:a3:e6:58:fa:5e:49:cb:b8:7c:93:
         d7:80:f7:62:95:9b:85:41:d3:d1:c4:15:9a:e6:49:96:8c:06:
         7c:a0:57:75:9c:66:51:e2:71:40:82:43:de:a4:57:06:00:76:
         d2:20:05:ff:00:ad:1d:94:6e:a0:78:e9:5d:d4:58:56:3a:d6:
         83:c1:04:d3:5c:a4:c4:37:b9:39:8d:d0:f7:38:67:16:a7:db:
         80:fe:41:5a:49:39:59:70:b8:20:b3:df:39:a0:cb:fa:69:8b:
         71:77:4c:7b:1c:f0:01:03:b5:53:0b:5d:3e:80:fc:43:dc:96:
         17:31:71:fb:7d:69:b6:1e:d0:6e:6a:0f:56:71:7e:57:7d:cb:
         12:10:e4:cb
-----BEGIN CERTIFICATE-----
MIIDtDCCApygAwIBAgIQaX8h14PiPS7d8F6wNZkfOjANBgkqhkiG9w0BAQsFADAN
MQswCQYDVQQDDAJDQTAeFw0yMTEwMjkxMDQ2MjlaFw0yNDAyMDExMDQ2MjlaMHYx
CzAJBgNVBAYTAlZOMRQwEgYDVQQIDAtIbyBDaG8gTWluaDEZMBcGA1UEBwwQSG8g
Q2hpIE1pbmggY2l0eTEMMAoGA1UECgwDVk5HMRIwEAYDVQQLDAlDb21tdW5pdHkx
FDASBgNVBAMMC3VzZXItc2VydmVyMIIBIjANBgkqhkiG9w0BAQEFAAOCAQ8AMIIB
CgKCAQEA9+O3Oq3HNE1Jx2mHms9KAOQatvPDQceEcs/3D0NyFSHDnxwJlIKgTBqb
iYlt7v6EdHF76BG1W2Qch/5JfERMlbPe9JPDPsmyxi4qqNC8k1W5dSM1yjx6AAJ4
copMJ+ghK+xQf7Qup0agrLFUmbQ11nL6ihGqHVlndXikg3E5TGqSVyO44E/8Cf3r
fupiO2SlgV13zkGuu++JyXspApHcUFf8i80OoMmfhKeLv8S276WbvpmuGYEPdMKD
CuttBjUHuVwnsiZjVC1yHXWjdIi+DIJk58oXNN7W9Tf2rsymvgVp0SqEw7skcgJ4
UCtu1QwZ/1EprnXdbXbj+8XRaUkJ/QIDAQABo4GmMIGjMAkGA1UdEwQCMAAwHQYD
VR0OBBYEFP3iTbuR5AuzKX0/AslOWmd0lNqfMD0GA1UdIwQ2MDSAFDv56pvtDObU
PIxHM8/obcopoeljoRGkDzANMQswCQYDVQQDDAJDQYIJAIa0hejoAyRwMBMGA1Ud
JQQMMAoGCCsGAQUFBwMBMAsGA1UdDwQEAwIFoDAWBgNVHREEDzANggt1c2VyLXNl
cnZlcjANBgkqhkiG9w0BAQsFAAOCAQEAWlQBS7UU/kesNUPQs5mVksD6/D0MGbJH
a9KtxlsKF0TUUsdzjwCEWD/Y0rUtR7ydxyNjQhscbjISXEZiUaXE0UF381uwTvME
D1nQbGfnnuYP59IPAeTg01W2W6YYwJB/qbGK+0pxyDnNMQyY0jwg3+Rfr7Wj5lj6
XknLuHyT14D3YpWbhUHT0cQVmuZJlowGfKBXdZxmUeJxQIJD3qRXBgB20iAF/wCt
HZRuoHjpXdRYVjrWg8EE01ykxDe5OY3Q9zhnFqfbgP5BWkk5WXC4ILPfOaDL+mmL
cXdMexzwAQO1UwtdPoD8Q9yWFzFx+31pth7QbmoPVnF+V33LEhDkyw==
-----END CERTIFICATE-----
