Certificate:
    Data:
        Version: 3 (0x2)
        Serial Number:
            9a:b0:34:8f:9d:5b:47:b9:df:d4:cc:36:0f:fa:53:36
    Signature Algorithm: sha256WithRSAEncryption
        Issuer: CN=CA
        Validity
            Not Before: Oct 29 09:54:23 2021 GMT
            Not After : Feb  1 09:54:23 2024 GMT
        Subject: C=VN, ST=Ho Cho Minh, L=Ho Chi Minh city, O=VNG, OU=Community, CN=user-server
        Subject Public Key Info:
            Public Key Algorithm: rsaEncryption
                Public-Key: (2048 bit)
                Modulus:
                    00:f7:e3:b7:3a:ad:c7:34:4d:49:c7:69:87:9a:cf:
                    4a:00:e4:1a:b6:f3:c3:41:c7:84:72:cf:f7:0f:43:
                    72:15:21:c3:9f:1c:09:94:82:a0:4c:1a:9b:89:89:
                    6d:ee:fe:84:74:71:7b:e8:11:b5:5b:64:1c:87:fe:
                    49:7c:44:4c:95:b3:de:f4:93:c3:3e:c9:b2:c6:2e:
                    2a:a8:d0:bc:93:55:b9:75:23:35:ca:3c:7a:00:02:
                    78:72:8a:4c:27:e8:21:2b:ec:50:7f:b4:2e:a7:46:
                    a0:ac:b1:54:99:b4:35:d6:72:fa:8a:11:aa:1d:59:
                    67:75:78:a4:83:71:39:4c:6a:92:57:23:b8:e0:4f:
                    fc:09:fd:eb:7e:ea:62:3b:64:a5:81:5d:77:ce:41:
                    ae:bb:ef:89:c9:7b:29:02:91:dc:50:57:fc:8b:cd:
                    0e:a0:c9:9f:84:a7:8b:bf:c4:b6:ef:a5:9b:be:99:
                    ae:19:81:0f:74:c2:83:0a:eb:6d:06:35:07:b9:5c:
                    27:b2:26:63:54:2d:72:1d:75:a3:74:88:be:0c:82:
                    64:e7:ca:17:34:de:d6:f5:37:f6:ae:cc:a6:be:05:
                    69:d1:2a:84:c3:bb:24:72:02:78:50:2b:6e:d5:0c:
                    19:ff:51:29:ae:75:dd:6d:76:e3:fb:c5:d1:69:49:
                    09:fd
                Exponent: 65537 (0x10001)
        X509v3 extensions:
            X509v3 Basic Constraints: 
                CA:FALSE
            X509v3 Subject Key Identifier: 
                FD:E2:4D:BB:91:E4:0B:B3:29:7D:3F:02:C9:4E:5A:67:74:94:DA:9F
            X509v3 Authority Key Identifier: 
                keyid:3B:F9:EA:9B:ED:0C:E6:D4:3C:8C:47:33:CF:E8:6D:CA:29:A1:E9:63
                DirName:/CN=CA
                serial:86:B4:85:E8:E8:03:24:70

            X509v3 Extended Key Usage: 
                TLS Web Server Authentication
            X509v3 Key Usage: 
                Digital Signature, Key Encipherment
            X509v3 Subject Alternative Name: 
                DNS:user-server
    Signature Algorithm: sha256WithRSAEncryption
         a1:1f:58:6c:c5:18:ae:01:fa:3c:1d:4f:79:02:47:ea:9e:56:
         66:47:50:89:bd:4b:18:ea:b8:ab:f9:06:db:f9:19:a6:77:d9:
         c8:fa:a2:19:3f:a2:b8:07:e7:45:ee:a7:a1:09:ff:0e:a4:9d:
         b2:53:f8:dd:46:e7:da:cd:00:de:29:97:7b:84:7b:ce:e1:c6:
         2a:86:48:30:5a:53:e0:1b:6b:d5:b8:f4:9e:e1:6e:77:49:1d:
         6c:76:6d:4d:8e:e2:c2:7a:b4:23:8f:41:11:9c:71:8d:b6:45:
         6c:37:99:75:aa:8c:67:c7:8c:e5:7c:e0:60:a5:0f:69:6b:bb:
         69:56:4b:27:37:d3:a1:60:98:26:e5:4a:fa:ba:d6:86:e0:9d:
         52:ce:e3:a2:96:cf:b7:bd:de:f2:77:27:2f:bc:c9:05:5e:bf:
         74:12:23:cd:04:d5:94:6c:7a:e4:08:a3:f0:46:2c:54:14:60:
         e4:51:2d:37:f7:d7:aa:15:bd:75:ac:7a:bc:e2:81:ac:4f:0f:
         fd:6e:4f:a5:de:8d:ff:d0:67:19:06:9a:8e:67:23:0a:41:fd:
         8a:2f:e2:7d:e7:50:f6:dc:d8:cf:d7:2c:4d:bd:64:d5:b6:e5:
         9b:67:b0:56:7c:1f:a9:2d:9b:73:f2:d1:8a:67:8a:4c:24:16:
         e2:cd:7d:18
-----BEGIN CERTIFICATE-----
MIIDtTCCAp2gAwIBAgIRAJqwNI+dW0e539TMNg/6UzYwDQYJKoZIhvcNAQELBQAw
DTELMAkGA1UEAwwCQ0EwHhcNMjExMDI5MDk1NDIzWhcNMjQwMjAxMDk1NDIzWjB2
MQswCQYDVQQGEwJWTjEUMBIGA1UECAwLSG8gQ2hvIE1pbmgxGTAXBgNVBAcMEEhv
IENoaSBNaW5oIGNpdHkxDDAKBgNVBAoMA1ZORzESMBAGA1UECwwJQ29tbXVuaXR5
MRQwEgYDVQQDDAt1c2VyLXNlcnZlcjCCASIwDQYJKoZIhvcNAQEBBQADggEPADCC
AQoCggEBAPfjtzqtxzRNScdph5rPSgDkGrbzw0HHhHLP9w9DchUhw58cCZSCoEwa
m4mJbe7+hHRxe+gRtVtkHIf+SXxETJWz3vSTwz7JssYuKqjQvJNVuXUjNco8egAC
eHKKTCfoISvsUH+0LqdGoKyxVJm0NdZy+ooRqh1ZZ3V4pINxOUxqklcjuOBP/An9
637qYjtkpYFdd85Brrvvicl7KQKR3FBX/IvNDqDJn4Sni7/Etu+lm76ZrhmBD3TC
gwrrbQY1B7lcJ7ImY1Qtch11o3SIvgyCZOfKFzTe1vU39q7Mpr4FadEqhMO7JHIC
eFArbtUMGf9RKa513W124/vF0WlJCf0CAwEAAaOBpjCBozAJBgNVHRMEAjAAMB0G
A1UdDgQWBBT94k27keQLsyl9PwLJTlpndJTanzA9BgNVHSMENjA0gBQ7+eqb7Qzm
1DyMRzPP6G3KKaHpY6ERpA8wDTELMAkGA1UEAwwCQ0GCCQCGtIXo6AMkcDATBgNV
HSUEDDAKBggrBgEFBQcDATALBgNVHQ8EBAMCBaAwFgYDVR0RBA8wDYILdXNlci1z
ZXJ2ZXIwDQYJKoZIhvcNAQELBQADggEBAKEfWGzFGK4B+jwdT3kCR+qeVmZHUIm9
SxjquKv5Btv5GaZ32cj6ohk/orgH50Xup6EJ/w6knbJT+N1G59rNAN4pl3uEe87h
xiqGSDBaU+Aba9W49J7hbndJHWx2bU2O4sJ6tCOPQRGccY22RWw3mXWqjGfHjOV8
4GClD2lru2lWSyc306FgmCblSvq61obgnVLO46KWz7e93vJ3Jy+8yQVev3QSI80E
1ZRseuQIo/BGLFQUYORRLTf316oVvXWserzigaxPD/1uT6Xejf/QZxkGmo5nIwpB
/Yov4n3nUPbc2M/XLE29ZNW25ZtnsFZ8H6ktm3Py0YpnikwkFuLNfRg=
-----END CERTIFICATE-----
