Certificate:
    Data:
        Version: 3 (0x2)
        Serial Number:
            9e:64:37:99:3a:cd:97:91:84:c0:4c:8e:27:2b:e9:1c
    Signature Algorithm: sha256WithRSAEncryption
        Issuer: CN=CA
        Validity
            Not Before: Oct 29 10:36:39 2021 GMT
            Not After : Feb  1 10:36:39 2024 GMT
        Subject: C=VN, ST=Ho Cho Minh, L=Ho Chi Minh city, O=VNG, OU=Community, CN=user-server
        Subject Public Key Info:
            Public Key Algorithm: rsaEncryption
                Public-Key: (2048 bit)
                Modulus:
                    00:f7:e3:b7:3a:ad:c7:34:4d:49:c7:69:87:9a:cf:
                    4a:00:e4:1a:b6:f3:c3:41:c7:84:72:cf:f7:0f:43:
                    72:15:21:c3:9f:1c:09:94:82:a0:4c:1a:9b:89:89:
                    6d:ee:fe:84:74:71:7b:e8:11:b5:5b:64:1c:87:fe:
                    49:7c:44:4c:95:b3:de:f4:93:c3:3e:c9:b2:c6:2e:
                    2a:a8:d0:bc:93:55:b9:75:23:35:ca:3c:7a:00:02:
                    78:72:8a:4c:27:e8:21:2b:ec:50:7f:b4:2e:a7:46:
                    a0:ac:b1:54:99:b4:35:d6:72:fa:8a:11:aa:1d:59:
                    67:75:78:a4:83:71:39:4c:6a:92:57:23:b8:e0:4f:
                    fc:09:fd:eb:7e:ea:62:3b:64:a5:81:5d:77:ce:41:
                    ae:bb:ef:89:c9:7b:29:02:91:dc:50:57:fc:8b:cd:
                    0e:a0:c9:9f:84:a7:8b:bf:c4:b6:ef:a5:9b:be:99:
                    ae:19:81:0f:74:c2:83:0a:eb:6d:06:35:07:b9:5c:
                    27:b2:26:63:54:2d:72:1d:75:a3:74:88:be:0c:82:
                    64:e7:ca:17:34:de:d6:f5:37:f6:ae:cc:a6:be:05:
                    69:d1:2a:84:c3:bb:24:72:02:78:50:2b:6e:d5:0c:
                    19:ff:51:29:ae:75:dd:6d:76:e3:fb:c5:d1:69:49:
                    09:fd
                Exponent: 65537 (0x10001)
        X509v3 extensions:
            X509v3 Basic Constraints: 
                CA:FALSE
            X509v3 Subject Key Identifier: 
                FD:E2:4D:BB:91:E4:0B:B3:29:7D:3F:02:C9:4E:5A:67:74:94:DA:9F
            X509v3 Authority Key Identifier: 
                keyid:3B:F9:EA:9B:ED:0C:E6:D4:3C:8C:47:33:CF:E8:6D:CA:29:A1:E9:63
                DirName:/CN=CA
                serial:86:B4:85:E8:E8:03:24:70

            X509v3 Extended Key Usage: 
                TLS Web Server Authentication
            X509v3 Key Usage: 
                Digital Signature, Key Encipherment
            X509v3 Subject Alternative Name: 
                DNS:user-server
    Signature Algorithm: sha256WithRSAEncryption
         85:6f:7a:3e:24:ff:e7:ee:dc:f2:bb:64:5e:21:8c:c2:5c:17:
         fa:cf:6d:bd:f2:d4:d0:ec:f8:a1:c4:94:96:fa:30:f0:73:20:
         b4:50:f2:37:4e:27:22:67:f9:6d:bf:a1:31:7e:4d:76:2c:d4:
         34:22:0e:bf:e0:11:f5:8c:91:26:e6:5a:00:cd:31:34:b9:0a:
         55:86:4e:d9:5c:28:5c:e8:ac:e4:a2:22:22:a8:d4:af:40:05:
         26:43:56:67:33:44:48:b8:da:0d:fd:ce:0e:dd:0e:de:e7:70:
         7e:b4:5a:6a:a9:3b:f8:22:83:aa:b5:30:a6:99:0e:65:45:44:
         eb:ec:9d:6c:2f:7c:81:8e:e8:ad:14:cc:5b:c3:a1:8b:eb:71:
         39:1d:aa:90:45:19:bd:71:53:d4:ca:9f:08:27:f3:e9:2c:04:
         a4:57:35:b2:af:7e:e7:ce:d4:ba:25:5e:da:66:71:0b:9c:a0:
         79:16:bd:25:53:4b:76:51:86:ba:71:91:b5:70:bb:08:ee:e5:
         f6:30:6f:d5:b7:b2:2d:8e:51:4f:37:a9:6d:3a:e8:3a:9a:88:
         3d:b4:f0:79:49:8a:85:2b:c5:f0:75:96:38:2f:f1:78:d2:bd:
         99:de:00:cf:84:cc:89:e8:0a:af:f3:05:61:17:27:0d:9f:0e:
         27:fa:13:8d
-----BEGIN CERTIFICATE-----
MIIDtTCCAp2gAwIBAgIRAJ5kN5k6zZeRhMBMjicr6RwwDQYJKoZIhvcNAQELBQAw
DTELMAkGA1UEAwwCQ0EwHhcNMjExMDI5MTAzNjM5WhcNMjQwMjAxMTAzNjM5WjB2
MQswCQYDVQQGEwJWTjEUMBIGA1UECAwLSG8gQ2hvIE1pbmgxGTAXBgNVBAcMEEhv
IENoaSBNaW5oIGNpdHkxDDAKBgNVBAoMA1ZORzESMBAGA1UECwwJQ29tbXVuaXR5
MRQwEgYDVQQDDAt1c2VyLXNlcnZlcjCCASIwDQYJKoZIhvcNAQEBBQADggEPADCC
AQoCggEBAPfjtzqtxzRNScdph5rPSgDkGrbzw0HHhHLP9w9DchUhw58cCZSCoEwa
m4mJbe7+hHRxe+gRtVtkHIf+SXxETJWz3vSTwz7JssYuKqjQvJNVuXUjNco8egAC
eHKKTCfoISvsUH+0LqdGoKyxVJm0NdZy+ooRqh1ZZ3V4pINxOUxqklcjuOBP/An9
637qYjtkpYFdd85Brrvvicl7KQKR3FBX/IvNDqDJn4Sni7/Etu+lm76ZrhmBD3TC
gwrrbQY1B7lcJ7ImY1Qtch11o3SIvgyCZOfKFzTe1vU39q7Mpr4FadEqhMO7JHIC
eFArbtUMGf9RKa513W124/vF0WlJCf0CAwEAAaOBpjCBozAJBgNVHRMEAjAAMB0G
A1UdDgQWBBT94k27keQLsyl9PwLJTlpndJTanzA9BgNVHSMENjA0gBQ7+eqb7Qzm
1DyMRzPP6G3KKaHpY6ERpA8wDTELMAkGA1UEAwwCQ0GCCQCGtIXo6AMkcDATBgNV
HSUEDDAKBggrBgEFBQcDATALBgNVHQ8EBAMCBaAwFgYDVR0RBA8wDYILdXNlci1z
ZXJ2ZXIwDQYJKoZIhvcNAQELBQADggEBAIVvej4k/+fu3PK7ZF4hjMJcF/rPbb3y
1NDs+KHElJb6MPBzILRQ8jdOJyJn+W2/oTF+TXYs1DQiDr/gEfWMkSbmWgDNMTS5
ClWGTtlcKFzorOSiIiKo1K9ABSZDVmczREi42g39zg7dDt7ncH60WmqpO/gig6q1
MKaZDmVFROvsnWwvfIGO6K0UzFvDoYvrcTkdqpBFGb1xU9TKnwgn8+ksBKRXNbKv
fufO1LolXtpmcQucoHkWvSVTS3ZRhrpxkbVwuwju5fYwb9W3si2OUU83qW066Dqa
iD208HlJioUrxfB1ljgv8XjSvZneAM+EzInoCq/zBWEXJw2fDif6E40=
-----END CERTIFICATE-----
