Certificate:
    Data:
        Version: 3 (0x2)
        Serial Number:
            9e:9a:b7:a3:ff:5f:82:e5:d3:48:18:3b:4c:f6:14:e1
    Signature Algorithm: sha256WithRSAEncryption
        Issuer: CN=CA
        Validity
            Not Before: Oct 29 10:41:40 2021 GMT
            Not After : Feb  1 10:41:40 2024 GMT
        Subject: C=VN, ST=Ho Cho Minh, L=Ho Chi Minh city, O=VNG, OU=Community, CN=user-server
        Subject Public Key Info:
            Public Key Algorithm: rsaEncryption
                Public-Key: (2048 bit)
                Modulus:
                    00:f7:e3:b7:3a:ad:c7:34:4d:49:c7:69:87:9a:cf:
                    4a:00:e4:1a:b6:f3:c3:41:c7:84:72:cf:f7:0f:43:
                    72:15:21:c3:9f:1c:09:94:82:a0:4c:1a:9b:89:89:
                    6d:ee:fe:84:74:71:7b:e8:11:b5:5b:64:1c:87:fe:
                    49:7c:44:4c:95:b3:de:f4:93:c3:3e:c9:b2:c6:2e:
                    2a:a8:d0:bc:93:55:b9:75:23:35:ca:3c:7a:00:02:
                    78:72:8a:4c:27:e8:21:2b:ec:50:7f:b4:2e:a7:46:
                    a0:ac:b1:54:99:b4:35:d6:72:fa:8a:11:aa:1d:59:
                    67:75:78:a4:83:71:39:4c:6a:92:57:23:b8:e0:4f:
                    fc:09:fd:eb:7e:ea:62:3b:64:a5:81:5d:77:ce:41:
                    ae:bb:ef:89:c9:7b:29:02:91:dc:50:57:fc:8b:cd:
                    0e:a0:c9:9f:84:a7:8b:bf:c4:b6:ef:a5:9b:be:99:
                    ae:19:81:0f:74:c2:83:0a:eb:6d:06:35:07:b9:5c:
                    27:b2:26:63:54:2d:72:1d:75:a3:74:88:be:0c:82:
                    64:e7:ca:17:34:de:d6:f5:37:f6:ae:cc:a6:be:05:
                    69:d1:2a:84:c3:bb:24:72:02:78:50:2b:6e:d5:0c:
                    19:ff:51:29:ae:75:dd:6d:76:e3:fb:c5:d1:69:49:
                    09:fd
                Exponent: 65537 (0x10001)
        X509v3 extensions:
            X509v3 Basic Constraints: 
                CA:FALSE
            X509v3 Subject Key Identifier: 
                FD:E2:4D:BB:91:E4:0B:B3:29:7D:3F:02:C9:4E:5A:67:74:94:DA:9F
            X509v3 Authority Key Identifier: 
                keyid:3B:F9:EA:9B:ED:0C:E6:D4:3C:8C:47:33:CF:E8:6D:CA:29:A1:E9:63
                DirName:/CN=CA
                serial:86:B4:85:E8:E8:03:24:70

            X509v3 Extended Key Usage: 
                TLS Web Server Authentication
            X509v3 Key Usage: 
                Digital Signature, Key Encipherment
            X509v3 Subject Alternative Name: 
                DNS:user-server
    Signature Algorithm: sha256WithRSAEncryption
         6b:78:88:21:b9:85:cb:d6:ab:41:b2:49:b4:0b:41:d2:81:a3:
         83:ff:53:44:80:44:1e:55:fb:c2:ed:d1:46:d6:22:43:e9:03:
         49:37:70:e7:ea:64:b9:b7:2c:16:85:4b:32:4a:ab:bd:08:4e:
         1e:a1:b7:4b:60:b4:3b:47:9c:a3:dc:6b:de:d6:8a:f1:c8:1c:
         9e:f4:77:b8:29:65:20:bb:f7:b5:3f:e0:ea:b1:51:55:07:a8:
         cc:93:8f:c1:a3:23:1b:2c:ac:ce:cb:44:71:72:91:4f:00:b5:
         02:78:48:88:c8:35:61:5e:e2:52:ec:12:9e:92:64:3e:04:23:
         e0:67:9e:85:ea:28:02:ad:67:4a:f0:2d:a4:14:3d:06:29:fa:
         79:37:a5:b1:5b:77:c5:31:95:ed:39:0d:4b:43:1d:58:37:12:
         9e:8f:ac:87:2f:44:ef:d3:a2:c8:a5:85:42:78:13:63:70:8e:
         d7:32:4d:29:f6:c6:19:20:43:24:a0:65:bd:7b:5a:80:02:4d:
         57:65:92:50:4b:97:04:b5:c7:1c:19:6b:08:1b:dd:66:66:74:
         32:68:e6:7a:c0:38:6a:d9:0d:f2:16:29:a1:65:09:1b:bd:3e:
         bc:92:82:a0:76:fc:3a:9d:11:ba:8d:46:f6:12:7f:cb:f6:90:
         b0:9a:cb:5b
-----BEGIN CERTIFICATE-----
MIIDtTCCAp2gAwIBAgIRAJ6at6P/X4Ll00gYO0z2FOEwDQYJKoZIhvcNAQELBQAw
DTELMAkGA1UEAwwCQ0EwHhcNMjExMDI5MTA0MTQwWhcNMjQwMjAxMTA0MTQwWjB2
MQswCQYDVQQGEwJWTjEUMBIGA1UECAwLSG8gQ2hvIE1pbmgxGTAXBgNVBAcMEEhv
IENoaSBNaW5oIGNpdHkxDDAKBgNVBAoMA1ZORzESMBAGA1UECwwJQ29tbXVuaXR5
MRQwEgYDVQQDDAt1c2VyLXNlcnZlcjCCASIwDQYJKoZIhvcNAQEBBQADggEPADCC
AQoCggEBAPfjtzqtxzRNScdph5rPSgDkGrbzw0HHhHLP9w9DchUhw58cCZSCoEwa
m4mJbe7+hHRxe+gRtVtkHIf+SXxETJWz3vSTwz7JssYuKqjQvJNVuXUjNco8egAC
eHKKTCfoISvsUH+0LqdGoKyxVJm0NdZy+ooRqh1ZZ3V4pINxOUxqklcjuOBP/An9
637qYjtkpYFdd85Brrvvicl7KQKR3FBX/IvNDqDJn4Sni7/Etu+lm76ZrhmBD3TC
gwrrbQY1B7lcJ7ImY1Qtch11o3SIvgyCZOfKFzTe1vU39q7Mpr4FadEqhMO7JHIC
eFArbtUMGf9RKa513W124/vF0WlJCf0CAwEAAaOBpjCBozAJBgNVHRMEAjAAMB0G
A1UdDgQWBBT94k27keQLsyl9PwLJTlpndJTanzA9BgNVHSMENjA0gBQ7+eqb7Qzm
1DyMRzPP6G3KKaHpY6ERpA8wDTELMAkGA1UEAwwCQ0GCCQCGtIXo6AMkcDATBgNV
HSUEDDAKBggrBgEFBQcDATALBgNVHQ8EBAMCBaAwFgYDVR0RBA8wDYILdXNlci1z
ZXJ2ZXIwDQYJKoZIhvcNAQELBQADggEBAGt4iCG5hcvWq0GySbQLQdKBo4P/U0SA
RB5V+8Lt0UbWIkPpA0k3cOfqZLm3LBaFSzJKq70ITh6ht0tgtDtHnKPca97WivHI
HJ70d7gpZSC797U/4OqxUVUHqMyTj8GjIxssrM7LRHFykU8AtQJ4SIjINWFe4lLs
Ep6SZD4EI+BnnoXqKAKtZ0rwLaQUPQYp+nk3pbFbd8Uxle05DUtDHVg3Ep6PrIcv
RO/TosilhUJ4E2NwjtcyTSn2xhkgQySgZb17WoACTVdlklBLlwS1xxwZawgb3WZm
dDJo5nrAOGrZDfIWKaFlCRu9PrySgqB2/DqdEbqNRvYSf8v2kLCay1s=
-----END CERTIFICATE-----
