Certificate:
    Data:
        Version: 3 (0x2)
        Serial Number:
            ad:c3:fe:a4:7f:d9:93:22:7b:c8:4e:5e:8d:93:04:71
    Signature Algorithm: sha256WithRSAEncryption
        Issuer: CN=CA
        Validity
            Not Before: Oct 29 10:43:05 2021 GMT
            Not After : Feb  1 10:43:05 2024 GMT
        Subject: C=VN, ST=Ho Cho Minh, L=Ho Chi Minh city, O=VNG, OU=Community, CN=user-server
        Subject Public Key Info:
            Public Key Algorithm: rsaEncryption
                Public-Key: (2048 bit)
                Modulus:
                    00:f7:e3:b7:3a:ad:c7:34:4d:49:c7:69:87:9a:cf:
                    4a:00:e4:1a:b6:f3:c3:41:c7:84:72:cf:f7:0f:43:
                    72:15:21:c3:9f:1c:09:94:82:a0:4c:1a:9b:89:89:
                    6d:ee:fe:84:74:71:7b:e8:11:b5:5b:64:1c:87:fe:
                    49:7c:44:4c:95:b3:de:f4:93:c3:3e:c9:b2:c6:2e:
                    2a:a8:d0:bc:93:55:b9:75:23:35:ca:3c:7a:00:02:
                    78:72:8a:4c:27:e8:21:2b:ec:50:7f:b4:2e:a7:46:
                    a0:ac:b1:54:99:b4:35:d6:72:fa:8a:11:aa:1d:59:
                    67:75:78:a4:83:71:39:4c:6a:92:57:23:b8:e0:4f:
                    fc:09:fd:eb:7e:ea:62:3b:64:a5:81:5d:77:ce:41:
                    ae:bb:ef:89:c9:7b:29:02:91:dc:50:57:fc:8b:cd:
                    0e:a0:c9:9f:84:a7:8b:bf:c4:b6:ef:a5:9b:be:99:
                    ae:19:81:0f:74:c2:83:0a:eb:6d:06:35:07:b9:5c:
                    27:b2:26:63:54:2d:72:1d:75:a3:74:88:be:0c:82:
                    64:e7:ca:17:34:de:d6:f5:37:f6:ae:cc:a6:be:05:
                    69:d1:2a:84:c3:bb:24:72:02:78:50:2b:6e:d5:0c:
                    19:ff:51:29:ae:75:dd:6d:76:e3:fb:c5:d1:69:49:
                    09:fd
                Exponent: 65537 (0x10001)
        X509v3 extensions:
            X509v3 Basic Constraints: 
                CA:FALSE
            X509v3 Subject Key Identifier: 
                FD:E2:4D:BB:91:E4:0B:B3:29:7D:3F:02:C9:4E:5A:67:74:94:DA:9F
            X509v3 Authority Key Identifier: 
                keyid:3B:F9:EA:9B:ED:0C:E6:D4:3C:8C:47:33:CF:E8:6D:CA:29:A1:E9:63
                DirName:/CN=CA
                serial:86:B4:85:E8:E8:03:24:70

            X509v3 Extended Key Usage: 
                TLS Web Server Authentication
            X509v3 Key Usage: 
                Digital Signature, Key Encipherment
            X509v3 Subject Alternative Name: 
                DNS:user-server
    Signature Algorithm: sha256WithRSAEncryption
         2b:0b:e6:07:5d:39:c6:0f:03:e2:3d:93:22:4a:6e:3a:4f:c4:
         4c:4f:b1:77:b8:4f:9f:4f:5d:e5:b3:38:02:c8:63:5a:42:2b:
         af:d6:5f:df:18:2e:66:8a:2c:4b:b0:a8:d5:50:1f:2d:c8:b7:
         57:35:84:06:3e:35:8e:8d:f2:40:67:62:d6:ca:61:4f:87:73:
         8a:08:0c:bb:2f:0c:e6:33:77:19:66:76:8a:47:42:88:b9:b3:
         04:67:91:db:76:99:85:af:72:e6:9b:a4:ff:fc:42:ee:d4:9a:
         58:89:55:fd:cd:72:e7:2d:47:62:48:b8:a6:8c:5c:d9:e9:a4:
         ad:53:8a:71:4d:78:ca:1d:51:3f:d6:55:bd:9c:15:32:17:b0:
         1e:37:b2:51:ad:6b:3a:02:13:9d:a0:3a:86:db:44:04:ca:a8:
         33:0c:cf:4a:5d:49:a5:c1:ea:c2:e5:c6:be:11:1d:8c:3a:5a:
         ac:d0:2b:fe:d6:bd:48:c0:c1:f2:33:48:6f:1c:0c:99:0a:93:
         b7:06:08:e7:53:7c:f4:a6:ca:a6:8d:0c:70:0c:4b:84:4b:c6:
         e8:a0:2f:fd:53:a1:7b:05:83:3d:4a:b5:49:65:c7:1c:92:81:
         d8:77:08:86:56:6f:9d:4f:50:5d:b8:d0:57:1a:e4:db:9c:d6:
         d6:a5:6a:f0
-----BEGIN CERTIFICATE-----
MIIDtTCCAp2gAwIBAgIRAK3D/qR/2ZMie8hOXo2TBHEwDQYJKoZIhvcNAQELBQAw
DTELMAkGA1UEAwwCQ0EwHhcNMjExMDI5MTA0MzA1WhcNMjQwMjAxMTA0MzA1WjB2
MQswCQYDVQQGEwJWTjEUMBIGA1UECAwLSG8gQ2hvIE1pbmgxGTAXBgNVBAcMEEhv
IENoaSBNaW5oIGNpdHkxDDAKBgNVBAoMA1ZORzESMBAGA1UECwwJQ29tbXVuaXR5
MRQwEgYDVQQDDAt1c2VyLXNlcnZlcjCCASIwDQYJKoZIhvcNAQEBBQADggEPADCC
AQoCggEBAPfjtzqtxzRNScdph5rPSgDkGrbzw0HHhHLP9w9DchUhw58cCZSCoEwa
m4mJbe7+hHRxe+gRtVtkHIf+SXxETJWz3vSTwz7JssYuKqjQvJNVuXUjNco8egAC
eHKKTCfoISvsUH+0LqdGoKyxVJm0NdZy+ooRqh1ZZ3V4pINxOUxqklcjuOBP/An9
637qYjtkpYFdd85Brrvvicl7KQKR3FBX/IvNDqDJn4Sni7/Etu+lm76ZrhmBD3TC
gwrrbQY1B7lcJ7ImY1Qtch11o3SIvgyCZOfKFzTe1vU39q7Mpr4FadEqhMO7JHIC
eFArbtUMGf9RKa513W124/vF0WlJCf0CAwEAAaOBpjCBozAJBgNVHRMEAjAAMB0G
A1UdDgQWBBT94k27keQLsyl9PwLJTlpndJTanzA9BgNVHSMENjA0gBQ7+eqb7Qzm
1DyMRzPP6G3KKaHpY6ERpA8wDTELMAkGA1UEAwwCQ0GCCQCGtIXo6AMkcDATBgNV
HSUEDDAKBggrBgEFBQcDATALBgNVHQ8EBAMCBaAwFgYDVR0RBA8wDYILdXNlci1z
ZXJ2ZXIwDQYJKoZIhvcNAQELBQADggEBACsL5gddOcYPA+I9kyJKbjpPxExPsXe4
T59PXeWzOALIY1pCK6/WX98YLmaKLEuwqNVQHy3It1c1hAY+NY6N8kBnYtbKYU+H
c4oIDLsvDOYzdxlmdopHQoi5swRnkdt2mYWvcuabpP/8Qu7UmliJVf3NcuctR2JI
uKaMXNnppK1TinFNeModUT/WVb2cFTIXsB43slGtazoCE52gOobbRATKqDMMz0pd
SaXB6sLlxr4RHYw6WqzQK/7WvUjAwfIzSG8cDJkKk7cGCOdTfPSmyqaNDHAMS4RL
xuigL/1ToXsFgz1KtUllxxySgdh3CIZWb51PUF240Fca5Nuc1talavA=
-----END CERTIFICATE-----
