Certificate:
    Data:
        Version: 3 (0x2)
        Serial Number:
            c4:21:ae:23:c3:d7:ce:fd:5f:b1:f0:bb:c8:90:f5:60
    Signature Algorithm: sha256WithRSAEncryption
        Issuer: CN=CA
        Validity
            Not Before: Oct 29 09:02:41 2021 GMT
            Not After : Feb  1 09:02:41 2024 GMT
        Subject: C=VN, ST=Ho Cho Minh, L=Ho Chi Minh city, O=VNG, OU=Community, CN=user-server
        Subject Public Key Info:
            Public Key Algorithm: rsaEncryption
                Public-Key: (2048 bit)
                Modulus:
                    00:f7:e3:b7:3a:ad:c7:34:4d:49:c7:69:87:9a:cf:
                    4a:00:e4:1a:b6:f3:c3:41:c7:84:72:cf:f7:0f:43:
                    72:15:21:c3:9f:1c:09:94:82:a0:4c:1a:9b:89:89:
                    6d:ee:fe:84:74:71:7b:e8:11:b5:5b:64:1c:87:fe:
                    49:7c:44:4c:95:b3:de:f4:93:c3:3e:c9:b2:c6:2e:
                    2a:a8:d0:bc:93:55:b9:75:23:35:ca:3c:7a:00:02:
                    78:72:8a:4c:27:e8:21:2b:ec:50:7f:b4:2e:a7:46:
                    a0:ac:b1:54:99:b4:35:d6:72:fa:8a:11:aa:1d:59:
                    67:75:78:a4:83:71:39:4c:6a:92:57:23:b8:e0:4f:
                    fc:09:fd:eb:7e:ea:62:3b:64:a5:81:5d:77:ce:41:
                    ae:bb:ef:89:c9:7b:29:02:91:dc:50:57:fc:8b:cd:
                    0e:a0:c9:9f:84:a7:8b:bf:c4:b6:ef:a5:9b:be:99:
                    ae:19:81:0f:74:c2:83:0a:eb:6d:06:35:07:b9:5c:
                    27:b2:26:63:54:2d:72:1d:75:a3:74:88:be:0c:82:
                    64:e7:ca:17:34:de:d6:f5:37:f6:ae:cc:a6:be:05:
                    69:d1:2a:84:c3:bb:24:72:02:78:50:2b:6e:d5:0c:
                    19:ff:51:29:ae:75:dd:6d:76:e3:fb:c5:d1:69:49:
                    09:fd
                Exponent: 65537 (0x10001)
        X509v3 extensions:
            X509v3 Basic Constraints: 
                CA:FALSE
            X509v3 Subject Key Identifier: 
                FD:E2:4D:BB:91:E4:0B:B3:29:7D:3F:02:C9:4E:5A:67:74:94:DA:9F
            X509v3 Authority Key Identifier: 
                keyid:3B:F9:EA:9B:ED:0C:E6:D4:3C:8C:47:33:CF:E8:6D:CA:29:A1:E9:63
                DirName:/CN=CA
                serial:86:B4:85:E8:E8:03:24:70

            X509v3 Extended Key Usage: 
                TLS Web Server Authentication
            X509v3 Key Usage: 
                Digital Signature, Key Encipherment
            X509v3 Subject Alternative Name: 
                DNS:user-server
    Signature Algorithm: sha256WithRSAEncryption
         4b:b4:82:50:f8:22:5e:2e:e0:d1:00:b7:6a:5b:a7:87:f3:6e:
         59:b9:78:aa:57:f2:cc:e2:ca:52:c1:45:b6:ab:62:3e:4c:8e:
         77:e2:19:9a:ae:af:a4:64:5b:37:2d:36:0a:0c:d3:40:98:bb:
         09:bb:4f:08:fc:21:7b:1e:12:2c:6b:df:89:ac:f9:29:af:83:
         74:c7:bb:07:9b:9b:77:ea:f2:1b:14:14:68:cf:99:a5:32:c8:
         5e:94:8c:a3:4c:55:08:c1:02:9d:b2:f1:f2:8c:30:54:6b:1e:
         2b:3d:f6:8b:25:72:55:a6:d5:5c:13:56:64:db:b4:79:7c:b6:
         9b:af:1f:da:7c:e0:c8:1d:18:70:b0:c0:68:02:c9:6d:21:6d:
         e8:ad:60:8d:b9:af:53:9b:3c:7a:ca:7d:3f:42:4b:95:67:d7:
         38:5a:43:75:fc:c3:2a:4f:58:ae:73:1d:cd:cc:30:74:6b:d4:
         9a:14:50:ac:59:9e:f6:e3:67:f2:2e:75:66:70:d7:db:7c:cb:
         b8:e4:2b:e8:1e:a4:9f:4b:7c:9f:79:52:60:0a:7e:80:cf:3c:
         2e:a3:72:58:39:15:e3:9b:c5:92:79:e8:a3:78:e9:1b:9f:2a:
         69:2e:de:b6:87:0a:93:3a:56:75:83:e0:d9:cc:40:ce:c4:2a:
         ee:94:da:6e
-----BEGIN CERTIFICATE-----
MIIDtTCCAp2gAwIBAgIRAMQhriPD1879X7Hwu8iQ9WAwDQYJKoZIhvcNAQELBQAw
DTELMAkGA1UEAwwCQ0EwHhcNMjExMDI5MDkwMjQxWhcNMjQwMjAxMDkwMjQxWjB2
MQswCQYDVQQGEwJWTjEUMBIGA1UECAwLSG8gQ2hvIE1pbmgxGTAXBgNVBAcMEEhv
IENoaSBNaW5oIGNpdHkxDDAKBgNVBAoMA1ZORzESMBAGA1UECwwJQ29tbXVuaXR5
MRQwEgYDVQQDDAt1c2VyLXNlcnZlcjCCASIwDQYJKoZIhvcNAQEBBQADggEPADCC
AQoCggEBAPfjtzqtxzRNScdph5rPSgDkGrbzw0HHhHLP9w9DchUhw58cCZSCoEwa
m4mJbe7+hHRxe+gRtVtkHIf+SXxETJWz3vSTwz7JssYuKqjQvJNVuXUjNco8egAC
eHKKTCfoISvsUH+0LqdGoKyxVJm0NdZy+ooRqh1ZZ3V4pINxOUxqklcjuOBP/An9
637qYjtkpYFdd85Brrvvicl7KQKR3FBX/IvNDqDJn4Sni7/Etu+lm76ZrhmBD3TC
gwrrbQY1B7lcJ7ImY1Qtch11o3SIvgyCZOfKFzTe1vU39q7Mpr4FadEqhMO7JHIC
eFArbtUMGf9RKa513W124/vF0WlJCf0CAwEAAaOBpjCBozAJBgNVHRMEAjAAMB0G
A1UdDgQWBBT94k27keQLsyl9PwLJTlpndJTanzA9BgNVHSMENjA0gBQ7+eqb7Qzm
1DyMRzPP6G3KKaHpY6ERpA8wDTELMAkGA1UEAwwCQ0GCCQCGtIXo6AMkcDATBgNV
HSUEDDAKBggrBgEFBQcDATALBgNVHQ8EBAMCBaAwFgYDVR0RBA8wDYILdXNlci1z
ZXJ2ZXIwDQYJKoZIhvcNAQELBQADggEBAEu0glD4Il4u4NEAt2pbp4fzblm5eKpX
8sziylLBRbarYj5MjnfiGZqur6RkWzctNgoM00CYuwm7Twj8IXseEixr34ms+Smv
g3THuwebm3fq8hsUFGjPmaUyyF6UjKNMVQjBAp2y8fKMMFRrHis99oslclWm1VwT
VmTbtHl8tpuvH9p84MgdGHCwwGgCyW0hbeitYI25r1ObPHrKfT9CS5Vn1zhaQ3X8
wypPWK5zHc3MMHRr1JoUUKxZnvbjZ/IudWZw19t8y7jkK+gepJ9LfJ95UmAKfoDP
PC6jclg5FeObxZJ56KN46RufKmku3raHCpM6VnWD4NnMQM7EKu6U2m4=
-----END CERTIFICATE-----
