Certificate:
    Data:
        Version: 3 (0x2)
        Serial Number:
            cf:f2:0a:c8:b2:e0:70:d7:2a:74:cd:ce:36:2e:13:e4
    Signature Algorithm: sha256WithRSAEncryption
        Issuer: CN=CA
        Validity
            Not Before: Oct 29 10:37:49 2021 GMT
            Not After : Feb  1 10:37:49 2024 GMT
        Subject: C=VN, ST=Ho Cho Minh, L=Ho Chi Minh city, O=VNG, OU=Community, CN=user-server
        Subject Public Key Info:
            Public Key Algorithm: rsaEncryption
                Public-Key: (2048 bit)
                Modulus:
                    00:f7:e3:b7:3a:ad:c7:34:4d:49:c7:69:87:9a:cf:
                    4a:00:e4:1a:b6:f3:c3:41:c7:84:72:cf:f7:0f:43:
                    72:15:21:c3:9f:1c:09:94:82:a0:4c:1a:9b:89:89:
                    6d:ee:fe:84:74:71:7b:e8:11:b5:5b:64:1c:87:fe:
                    49:7c:44:4c:95:b3:de:f4:93:c3:3e:c9:b2:c6:2e:
                    2a:a8:d0:bc:93:55:b9:75:23:35:ca:3c:7a:00:02:
                    78:72:8a:4c:27:e8:21:2b:ec:50:7f:b4:2e:a7:46:
                    a0:ac:b1:54:99:b4:35:d6:72:fa:8a:11:aa:1d:59:
                    67:75:78:a4:83:71:39:4c:6a:92:57:23:b8:e0:4f:
                    fc:09:fd:eb:7e:ea:62:3b:64:a5:81:5d:77:ce:41:
                    ae:bb:ef:89:c9:7b:29:02:91:dc:50:57:fc:8b:cd:
                    0e:a0:c9:9f:84:a7:8b:bf:c4:b6:ef:a5:9b:be:99:
                    ae:19:81:0f:74:c2:83:0a:eb:6d:06:35:07:b9:5c:
                    27:b2:26:63:54:2d:72:1d:75:a3:74:88:be:0c:82:
                    64:e7:ca:17:34:de:d6:f5:37:f6:ae:cc:a6:be:05:
                    69:d1:2a:84:c3:bb:24:72:02:78:50:2b:6e:d5:0c:
                    19:ff:51:29:ae:75:dd:6d:76:e3:fb:c5:d1:69:49:
                    09:fd
                Exponent: 65537 (0x10001)
        X509v3 extensions:
            X509v3 Basic Constraints: 
                CA:FALSE
            X509v3 Subject Key Identifier: 
                FD:E2:4D:BB:91:E4:0B:B3:29:7D:3F:02:C9:4E:5A:67:74:94:DA:9F
            X509v3 Authority Key Identifier: 
                keyid:3B:F9:EA:9B:ED:0C:E6:D4:3C:8C:47:33:CF:E8:6D:CA:29:A1:E9:63
                DirName:/CN=CA
                serial:86:B4:85:E8:E8:03:24:70

            X509v3 Extended Key Usage: 
                TLS Web Server Authentication
            X509v3 Key Usage: 
                Digital Signature, Key Encipherment
            X509v3 Subject Alternative Name: 
                DNS:user-server
    Signature Algorithm: sha256WithRSAEncryption
         8b:1e:d3:40:99:9a:fb:87:e9:0e:8a:f3:8d:44:dd:90:29:d3:
         f1:8a:92:d5:c5:cb:61:1f:99:cc:9e:4a:65:a9:e2:6e:f9:b1:
         f1:d5:3a:fa:c4:55:ce:29:eb:c2:58:55:20:24:f2:bd:ca:cb:
         11:c5:91:82:04:cd:6b:f9:b7:ae:b8:fb:39:31:c9:78:ce:48:
         6e:2a:d4:1f:25:88:36:a6:bc:84:27:82:b0:df:1d:c1:dc:07:
         6d:fe:52:a5:70:46:e2:65:99:27:74:fe:09:32:95:ed:ed:a5:
         90:60:dc:90:c0:6d:98:d4:8e:07:a6:de:57:57:1a:c7:1d:af:
         4a:71:6c:ca:9d:5a:cf:93:f6:5c:72:71:58:66:f1:d0:70:46:
         f7:ba:b8:91:ac:66:95:00:46:80:ea:54:bc:03:86:6b:78:9c:
         bb:b0:79:ad:66:5c:db:bc:03:e8:84:9d:6b:34:90:ae:cb:c1:
         9a:e2:07:ca:28:03:2e:3d:43:b7:10:9b:83:a0:20:cc:01:1d:
         0f:97:c3:e3:a0:ec:06:31:11:7f:0e:fb:be:b9:60:23:cd:c2:
         58:f7:c7:c5:47:e2:f5:e5:fb:c0:fa:07:5e:d3:6c:9d:39:1a:
         09:19:28:05:17:d5:95:2c:40:00:fb:0f:17:6c:66:00:c2:c1:
         75:7e:36:9e
-----BEGIN CERTIFICATE-----
MIIDtTCCAp2gAwIBAgIRAM/yCsiy4HDXKnTNzjYuE+QwDQYJKoZIhvcNAQELBQAw
DTELMAkGA1UEAwwCQ0EwHhcNMjExMDI5MTAzNzQ5WhcNMjQwMjAxMTAzNzQ5WjB2
MQswCQYDVQQGEwJWTjEUMBIGA1UECAwLSG8gQ2hvIE1pbmgxGTAXBgNVBAcMEEhv
IENoaSBNaW5oIGNpdHkxDDAKBgNVBAoMA1ZORzESMBAGA1UECwwJQ29tbXVuaXR5
MRQwEgYDVQQDDAt1c2VyLXNlcnZlcjCCASIwDQYJKoZIhvcNAQEBBQADggEPADCC
AQoCggEBAPfjtzqtxzRNScdph5rPSgDkGrbzw0HHhHLP9w9DchUhw58cCZSCoEwa
m4mJbe7+hHRxe+gRtVtkHIf+SXxETJWz3vSTwz7JssYuKqjQvJNVuXUjNco8egAC
eHKKTCfoISvsUH+0LqdGoKyxVJm0NdZy+ooRqh1ZZ3V4pINxOUxqklcjuOBP/An9
637qYjtkpYFdd85Brrvvicl7KQKR3FBX/IvNDqDJn4Sni7/Etu+lm76ZrhmBD3TC
gwrrbQY1B7lcJ7ImY1Qtch11o3SIvgyCZOfKFzTe1vU39q7Mpr4FadEqhMO7JHIC
eFArbtUMGf9RKa513W124/vF0WlJCf0CAwEAAaOBpjCBozAJBgNVHRMEAjAAMB0G
A1UdDgQWBBT94k27keQLsyl9PwLJTlpndJTanzA9BgNVHSMENjA0gBQ7+eqb7Qzm
1DyMRzPP6G3KKaHpY6ERpA8wDTELMAkGA1UEAwwCQ0GCCQCGtIXo6AMkcDATBgNV
HSUEDDAKBggrBgEFBQcDATALBgNVHQ8EBAMCBaAwFgYDVR0RBA8wDYILdXNlci1z
ZXJ2ZXIwDQYJKoZIhvcNAQELBQADggEBAIse00CZmvuH6Q6K841E3ZAp0/GKktXF
y2EfmcyeSmWp4m75sfHVOvrEVc4p68JYVSAk8r3KyxHFkYIEzWv5t664+zkxyXjO
SG4q1B8liDamvIQngrDfHcHcB23+UqVwRuJlmSd0/gkyle3tpZBg3JDAbZjUjgem
3ldXGscdr0pxbMqdWs+T9lxycVhm8dBwRve6uJGsZpUARoDqVLwDhmt4nLuwea1m
XNu8A+iEnWs0kK7LwZriB8ooAy49Q7cQm4OgIMwBHQ+Xw+Og7AYxEX8O+765YCPN
wlj3x8VH4vXl+8D6B17TbJ05GgkZKAUX1ZUsQAD7DxdsZgDCwXV+Np4=
-----END CERTIFICATE-----
