Certificate:
    Data:
        Version: 3 (0x2)
        Serial Number:
            d1:0a:e2:00:58:4e:61:32:1d:80:13:f5:47:c3:6f:17
    Signature Algorithm: sha256WithRSAEncryption
        Issuer: CN=CA
        Validity
            Not Before: Oct 29 09:02:05 2021 GMT
            Not After : Feb  1 09:02:05 2024 GMT
        Subject: C=VN, ST=Ho Cho Minh, L=Ho Chi Minh city, O=VNG, OU=Community, CN=user-server
        Subject Public Key Info:
            Public Key Algorithm: rsaEncryption
                Public-Key: (2048 bit)
                Modulus:
                    00:f7:e3:b7:3a:ad:c7:34:4d:49:c7:69:87:9a:cf:
                    4a:00:e4:1a:b6:f3:c3:41:c7:84:72:cf:f7:0f:43:
                    72:15:21:c3:9f:1c:09:94:82:a0:4c:1a:9b:89:89:
                    6d:ee:fe:84:74:71:7b:e8:11:b5:5b:64:1c:87:fe:
                    49:7c:44:4c:95:b3:de:f4:93:c3:3e:c9:b2:c6:2e:
                    2a:a8:d0:bc:93:55:b9:75:23:35:ca:3c:7a:00:02:
                    78:72:8a:4c:27:e8:21:2b:ec:50:7f:b4:2e:a7:46:
                    a0:ac:b1:54:99:b4:35:d6:72:fa:8a:11:aa:1d:59:
                    67:75:78:a4:83:71:39:4c:6a:92:57:23:b8:e0:4f:
                    fc:09:fd:eb:7e:ea:62:3b:64:a5:81:5d:77:ce:41:
                    ae:bb:ef:89:c9:7b:29:02:91:dc:50:57:fc:8b:cd:
                    0e:a0:c9:9f:84:a7:8b:bf:c4:b6:ef:a5:9b:be:99:
                    ae:19:81:0f:74:c2:83:0a:eb:6d:06:35:07:b9:5c:
                    27:b2:26:63:54:2d:72:1d:75:a3:74:88:be:0c:82:
                    64:e7:ca:17:34:de:d6:f5:37:f6:ae:cc:a6:be:05:
                    69:d1:2a:84:c3:bb:24:72:02:78:50:2b:6e:d5:0c:
                    19:ff:51:29:ae:75:dd:6d:76:e3:fb:c5:d1:69:49:
                    09:fd
                Exponent: 65537 (0x10001)
        X509v3 extensions:
            X509v3 Basic Constraints: 
                CA:FALSE
            X509v3 Subject Key Identifier: 
                FD:E2:4D:BB:91:E4:0B:B3:29:7D:3F:02:C9:4E:5A:67:74:94:DA:9F
            X509v3 Authority Key Identifier: 
                keyid:3B:F9:EA:9B:ED:0C:E6:D4:3C:8C:47:33:CF:E8:6D:CA:29:A1:E9:63
                DirName:/CN=CA
                serial:86:B4:85:E8:E8:03:24:70

            X509v3 Extended Key Usage: 
                TLS Web Server Authentication
            X509v3 Key Usage: 
                Digital Signature, Key Encipherment
            X509v3 Subject Alternative Name: 
                DNS:user-server
    Signature Algorithm: sha256WithRSAEncryption
         7c:93:cc:bd:63:55:b4:53:d6:c3:8f:19:a9:84:16:4e:c0:8d:
         0d:1e:47:a1:3f:2f:09:4b:7e:85:a8:20:6f:78:2d:4d:b1:af:
         fc:1c:65:31:82:da:35:bb:88:ab:d7:7a:54:af:6e:0e:ab:9b:
         19:e0:7f:a3:c2:9a:26:27:a5:0d:da:cd:66:ff:ef:81:55:64:
         df:d4:11:c3:ae:14:e6:d5:c7:6c:cc:72:fc:4d:1f:f6:6c:d1:
         73:20:c6:b0:2b:e0:30:a8:35:97:31:13:31:8a:09:4e:7c:4a:
         7a:80:b7:05:94:48:05:d1:16:0c:86:6b:d1:4e:78:a7:93:2a:
         46:3e:a3:60:99:29:15:cb:d2:b5:f3:6b:84:66:c0:f8:36:e3:
         b2:18:dc:44:80:da:cf:2f:c2:c5:de:b4:bb:9d:82:88:5a:95:
         91:41:f3:a3:8e:e3:16:fb:f2:b4:63:fb:51:4a:c2:0c:3e:55:
         82:ff:56:b8:e4:3d:9f:ca:e0:3b:a1:49:2a:0a:2b:fb:51:98:
         d6:b0:dd:0e:7c:7a:72:72:bc:25:2c:8f:7a:5f:27:f4:17:02:
         1c:6f:e0:50:2d:fa:1c:a6:41:43:b7:fa:d9:15:c1:cf:e3:39:
         d5:9e:dc:9e:72:b9:ef:6e:66:31:54:28:a5:11:bd:b9:2d:f0:
         c9:d5:6a:66
-----BEGIN CERTIFICATE-----
MIIDtTCCAp2gAwIBAgIRANEK4gBYTmEyHYAT9UfDbxcwDQYJKoZIhvcNAQELBQAw
DTELMAkGA1UEAwwCQ0EwHhcNMjExMDI5MDkwMjA1WhcNMjQwMjAxMDkwMjA1WjB2
MQswCQYDVQQGEwJWTjEUMBIGA1UECAwLSG8gQ2hvIE1pbmgxGTAXBgNVBAcMEEhv
IENoaSBNaW5oIGNpdHkxDDAKBgNVBAoMA1ZORzESMBAGA1UECwwJQ29tbXVuaXR5
MRQwEgYDVQQDDAt1c2VyLXNlcnZlcjCCASIwDQYJKoZIhvcNAQEBBQADggEPADCC
AQoCggEBAPfjtzqtxzRNScdph5rPSgDkGrbzw0HHhHLP9w9DchUhw58cCZSCoEwa
m4mJbe7+hHRxe+gRtVtkHIf+SXxETJWz3vSTwz7JssYuKqjQvJNVuXUjNco8egAC
eHKKTCfoISvsUH+0LqdGoKyxVJm0NdZy+ooRqh1ZZ3V4pINxOUxqklcjuOBP/An9
637qYjtkpYFdd85Brrvvicl7KQKR3FBX/IvNDqDJn4Sni7/Etu+lm76ZrhmBD3TC
gwrrbQY1B7lcJ7ImY1Qtch11o3SIvgyCZOfKFzTe1vU39q7Mpr4FadEqhMO7JHIC
eFArbtUMGf9RKa513W124/vF0WlJCf0CAwEAAaOBpjCBozAJBgNVHRMEAjAAMB0G
A1UdDgQWBBT94k27keQLsyl9PwLJTlpndJTanzA9BgNVHSMENjA0gBQ7+eqb7Qzm
1DyMRzPP6G3KKaHpY6ERpA8wDTELMAkGA1UEAwwCQ0GCCQCGtIXo6AMkcDATBgNV
HSUEDDAKBggrBgEFBQcDATALBgNVHQ8EBAMCBaAwFgYDVR0RBA8wDYILdXNlci1z
ZXJ2ZXIwDQYJKoZIhvcNAQELBQADggEBAHyTzL1jVbRT1sOPGamEFk7AjQ0eR6E/
LwlLfoWoIG94LU2xr/wcZTGC2jW7iKvXelSvbg6rmxngf6PCmiYnpQ3azWb/74FV
ZN/UEcOuFObVx2zMcvxNH/Zs0XMgxrAr4DCoNZcxEzGKCU58SnqAtwWUSAXRFgyG
a9FOeKeTKkY+o2CZKRXL0rXza4RmwPg247IY3ESA2s8vwsXetLudgohalZFB86OO
4xb78rRj+1FKwgw+VYL/VrjkPZ/K4DuhSSoKK/tRmNaw3Q58enJyvCUsj3pfJ/QX
Ahxv4FAt+hymQUO3+tkVwc/jOdWe3J5yue9uZjFUKKURvbkt8MnVamY=
-----END CERTIFICATE-----
