Certificate:
    Data:
        Version: 3 (0x2)
        Serial Number:
            ec:b8:d6:8a:5f:33:a9:73:d5:83:7d:1e:ee:b6:23:87
    Signature Algorithm: sha256WithRSAEncryption
        Issuer: CN=CA
        Validity
            Not Before: Oct 29 09:16:11 2021 GMT
            Not After : Feb  1 09:16:11 2024 GMT
        Subject: C=VN, ST=Ho Cho Minh, L=Ho Chi Minh city, O=VNG, OU=Community, CN=user-server
        Subject Public Key Info:
            Public Key Algorithm: rsaEncryption
                Public-Key: (2048 bit)
                Modulus:
                    00:f7:e3:b7:3a:ad:c7:34:4d:49:c7:69:87:9a:cf:
                    4a:00:e4:1a:b6:f3:c3:41:c7:84:72:cf:f7:0f:43:
                    72:15:21:c3:9f:1c:09:94:82:a0:4c:1a:9b:89:89:
                    6d:ee:fe:84:74:71:7b:e8:11:b5:5b:64:1c:87:fe:
                    49:7c:44:4c:95:b3:de:f4:93:c3:3e:c9:b2:c6:2e:
                    2a:a8:d0:bc:93:55:b9:75:23:35:ca:3c:7a:00:02:
                    78:72:8a:4c:27:e8:21:2b:ec:50:7f:b4:2e:a7:46:
                    a0:ac:b1:54:99:b4:35:d6:72:fa:8a:11:aa:1d:59:
                    67:75:78:a4:83:71:39:4c:6a:92:57:23:b8:e0:4f:
                    fc:09:fd:eb:7e:ea:62:3b:64:a5:81:5d:77:ce:41:
                    ae:bb:ef:89:c9:7b:29:02:91:dc:50:57:fc:8b:cd:
                    0e:a0:c9:9f:84:a7:8b:bf:c4:b6:ef:a5:9b:be:99:
                    ae:19:81:0f:74:c2:83:0a:eb:6d:06:35:07:b9:5c:
                    27:b2:26:63:54:2d:72:1d:75:a3:74:88:be:0c:82:
                    64:e7:ca:17:34:de:d6:f5:37:f6:ae:cc:a6:be:05:
                    69:d1:2a:84:c3:bb:24:72:02:78:50:2b:6e:d5:0c:
                    19:ff:51:29:ae:75:dd:6d:76:e3:fb:c5:d1:69:49:
                    09:fd
                Exponent: 65537 (0x10001)
        X509v3 extensions:
            X509v3 Basic Constraints: 
                CA:FALSE
            X509v3 Subject Key Identifier: 
                FD:E2:4D:BB:91:E4:0B:B3:29:7D:3F:02:C9:4E:5A:67:74:94:DA:9F
            X509v3 Authority Key Identifier: 
                keyid:3B:F9:EA:9B:ED:0C:E6:D4:3C:8C:47:33:CF:E8:6D:CA:29:A1:E9:63
                DirName:/CN=CA
                serial:86:B4:85:E8:E8:03:24:70

            X509v3 Extended Key Usage: 
                TLS Web Server Authentication
            X509v3 Key Usage: 
                Digital Signature, Key Encipherment
            X509v3 Subject Alternative Name: 
                DNS:user-server
    Signature Algorithm: sha256WithRSAEncryption
         1a:41:f5:24:6f:a5:8d:b7:a3:09:0d:52:09:d5:53:a0:3f:5d:
         82:db:23:5b:c5:04:6b:86:f2:d2:14:3c:d5:29:ee:6d:4e:8d:
         77:ec:f6:cf:3d:04:9a:aa:a5:df:db:29:27:c3:d0:ef:b5:d6:
         4c:0d:b7:3e:45:8b:1a:e5:7e:76:11:aa:75:f2:8f:7c:5d:9b:
         82:35:1d:11:75:61:1c:e0:4d:b3:15:7d:a0:07:fa:58:ff:45:
         fd:2f:89:60:b6:55:0a:13:bd:1d:36:d5:52:49:62:d1:44:c6:
         7a:ca:15:c4:40:2e:5e:cf:6e:01:dc:cc:ec:12:c5:99:c7:ec:
         af:6a:6e:c3:3f:14:5e:f9:73:4b:2e:67:a7:35:1f:71:e4:35:
         a4:0b:05:cf:8c:6b:a9:00:04:e5:72:39:8b:6b:16:d9:34:b7:
         2f:cf:bb:e6:64:1e:bb:f7:56:f7:50:3a:68:a2:dc:e0:0f:a5:
         2c:67:74:0e:1d:28:74:c5:5e:34:1e:d0:3e:f8:70:37:da:7b:
         02:8a:bc:b1:a1:c7:e5:a1:03:27:0a:91:70:88:98:cf:61:22:
         7e:46:8c:1f:30:c5:4d:0f:8e:e7:b6:b6:84:23:dd:20:52:5b:
         e7:4f:e9:c7:db:a8:1b:1f:26:aa:9d:08:99:a3:81:8c:1c:ce:
         87:a5:b2:f6
-----BEGIN CERTIFICATE-----
MIIDtTCCAp2gAwIBAgIRAOy41opfM6lz1YN9Hu62I4cwDQYJKoZIhvcNAQELBQAw
DTELMAkGA1UEAwwCQ0EwHhcNMjExMDI5MDkxNjExWhcNMjQwMjAxMDkxNjExWjB2
MQswCQYDVQQGEwJWTjEUMBIGA1UECAwLSG8gQ2hvIE1pbmgxGTAXBgNVBAcMEEhv
IENoaSBNaW5oIGNpdHkxDDAKBgNVBAoMA1ZORzESMBAGA1UECwwJQ29tbXVuaXR5
MRQwEgYDVQQDDAt1c2VyLXNlcnZlcjCCASIwDQYJKoZIhvcNAQEBBQADggEPADCC
AQoCggEBAPfjtzqtxzRNScdph5rPSgDkGrbzw0HHhHLP9w9DchUhw58cCZSCoEwa
m4mJbe7+hHRxe+gRtVtkHIf+SXxETJWz3vSTwz7JssYuKqjQvJNVuXUjNco8egAC
eHKKTCfoISvsUH+0LqdGoKyxVJm0NdZy+ooRqh1ZZ3V4pINxOUxqklcjuOBP/An9
637qYjtkpYFdd85Brrvvicl7KQKR3FBX/IvNDqDJn4Sni7/Etu+lm76ZrhmBD3TC
gwrrbQY1B7lcJ7ImY1Qtch11o3SIvgyCZOfKFzTe1vU39q7Mpr4FadEqhMO7JHIC
eFArbtUMGf9RKa513W124/vF0WlJCf0CAwEAAaOBpjCBozAJBgNVHRMEAjAAMB0G
A1UdDgQWBBT94k27keQLsyl9PwLJTlpndJTanzA9BgNVHSMENjA0gBQ7+eqb7Qzm
1DyMRzPP6G3KKaHpY6ERpA8wDTELMAkGA1UEAwwCQ0GCCQCGtIXo6AMkcDATBgNV
HSUEDDAKBggrBgEFBQcDATALBgNVHQ8EBAMCBaAwFgYDVR0RBA8wDYILdXNlci1z
ZXJ2ZXIwDQYJKoZIhvcNAQELBQADggEBABpB9SRvpY23owkNUgnVU6A/XYLbI1vF
BGuG8tIUPNUp7m1OjXfs9s89BJqqpd/bKSfD0O+11kwNtz5FixrlfnYRqnXyj3xd
m4I1HRF1YRzgTbMVfaAH+lj/Rf0viWC2VQoTvR021VJJYtFExnrKFcRALl7PbgHc
zOwSxZnH7K9qbsM/FF75c0suZ6c1H3HkNaQLBc+Ma6kABOVyOYtrFtk0ty/Pu+Zk
Hrv3VvdQOmii3OAPpSxndA4dKHTFXjQe0D74cDfaewKKvLGhx+WhAycKkXCImM9h
In5GjB8wxU0Pjue2toQj3SBSW+dP6cfbqBsfJqqdCJmjgYwczoelsvY=
-----END CERTIFICATE-----
